target datalayout = "e-m:e-p270:32:32-p271:32:32-p272:64:64-i64:64-i128:128-f80:128-n8:16:32:64-S128"
target triple = "x86_64-pc-linux-gnu"

%class.Lhs = type <{ %class.Expression, ptr, ptr, i8, [7 x i8] }>
%class.Expression = type { ptr, i32, i32, ptr }

; Function Attrs: mustprogress uwtable
define dso_local void @_ZN3LhsC2ERKS_(ptr noundef nonnull align 8 dereferenceable(41) %0, ptr noundef nonnull align 8 dereferenceable(41) %1) unnamed_addr #4 align 2 {
  %3 = alloca ptr, align 8
  %4 = alloca ptr, align 8
  store ptr %0, ptr %3, align 8, !tbaa !99
  store ptr %1, ptr %4, align 8, !tbaa !99
  %5 = load ptr, ptr %3, align 8
  call void @_ZN10ExpressionC2E9eTermType(ptr noundef nonnull align 8 dereferenceable(24) %5, i32 noundef 5)
  store ptr getelementptr inbounds inrange(-16, 176) ({ [24 x ptr] }, ptr @_ZTV3Lhs, i32 0, i32 0, i32 2), ptr %5, align 8, !tbaa !109
  %6 = getelementptr inbounds nuw %class.Lhs, ptr %5, i32 0, i32 1
  %7 = load ptr, ptr %4, align 8, !tbaa !99
  %8 = getelementptr inbounds nuw %class.Lhs, ptr %7, i32 0, i32 1
  %9 = load ptr, ptr %8, align 8, !tbaa !116
  store ptr %9, ptr %6, align 8, !tbaa !19
  %10 = getelementptr inbounds nuw %class.Lhs, ptr %5, i32 0, i32 2
  %11 = load ptr, ptr %4, align 8, !tbaa !99
  %12 = getelementptr inbounds nuw %class.Lhs, ptr %11, i32 0, i32 2
  %13 = load ptr, ptr %12, align 8, !tbaa !107
  store ptr %13, ptr %10, align 8, !tbaa !107
  %14 = getelementptr inbounds nuw %class.Lhs, ptr %5, i32 0, i32 3
  %15 = load ptr, ptr %4, align 8, !tbaa !99
  %16 = getelementptr inbounds nuw %class.Lhs, ptr %15, i32 0, i32 3
  %17 = load i8, ptr %16, align 8, !tbaa !103, !range !21, !noundef !22
  %18 = trunc i8 %17 to i1
  %19 = zext i1 %18 to i8
  store i8 %19, ptr %14, align 8, !tbaa !103
  ret void
}