; Function Attrs: mustprogress uwtable
define dso_local void @_ZN3LhsC2ERKS_(ptr noundef nonnull align 8 dereferenceable(41) %0, ptr noundef nonnull readonly align 8 captures(none) dereferenceable(41) %1) unnamed_addr #3 align 2 {
  tail call void @_ZN10ExpressionC2E9eTermType(ptr noundef nonnull align 8 dereferenceable(24) %0, i32 noundef 5)
  store ptr getelementptr inbounds nuw inrange(-16, 176) (i8, ptr @_ZTV3Lhs, i64 16), ptr %0, align 8, !tbaa !89
  %3 = getelementptr inbounds nuw i8, ptr %0, i64 24
  %4 = getelementptr inbounds nuw i8, ptr %1, i64 24
  %5 = load ptr, ptr %4, align 8, !tbaa !97
  store ptr %5, ptr %3, align 8, !tbaa !91
  %6 = getelementptr inbounds nuw i8, ptr %0, i64 32
  %7 = getelementptr inbounds nuw i8, ptr %1, i64 32
  %8 = load ptr, ptr %7, align 8, !tbaa !92
  store ptr %8, ptr %6, align 8, !tbaa !92
  %9 = getelementptr inbounds nuw i8, ptr %0, i64 40
  %10 = getelementptr inbounds nuw i8, ptr %1, i64 40
  %11 = load i8, ptr %10, align 8, !tbaa !96, !range !62, !noundef !63
  store i8 %11, ptr %9, align 8, !tbaa !96
  ret void
}